target datalayout = "e-m:e-p270:32:32-p271:32:32-p272:64:64-i64:64-i128:128-f80:128-n8:16:32:64-S128"
target triple = "x86_64-pc-linux-gnu"

%"class.clang::SanitizerMask" = type { [2 x i64] }

; Function Attrs: mustprogress nounwind uwtable
define linkonce_odr hidden noundef i32 @_ZN4llvm6detail17PopulationCounterImLm8EE5countEm(i64 noundef %0) #0 comdat align 2 {
  %2 = alloca i64, align 8
  store i64 %0, ptr %2, align 8
  %3 = load i64, ptr %2, align 8
  %4 = call i64 @llvm.ctpop.i64(i64 %3)
  %5 = trunc i64 %4 to i32
  ret i32 %5
}

; Function Attrs: mustprogress nounwind uwtable
define linkonce_odr hidden noundef i32 @_ZN4llvm8popcountImvEEiT_(i64 noundef %0) #0 comdat {
  %2 = alloca i64, align 8
  store i64 %0, ptr %2, align 8
  %3 = load i64, ptr %2, align 8
  %4 = call noundef i32 @_ZN4llvm6detail17PopulationCounterImLm8EE5countEm(i64 noundef %3)
  ret i32 %4
}

; Function Attrs: mustprogress nounwind uwtable
define dso_local noundef i32 @_ZNK5clang13SanitizerMask15countPopulationEv(ptr noundef nonnull align 8 dereferenceable(16) %0) #0 align 2 {
  %2 = alloca ptr, align 8
  %3 = alloca i32, align 4
  %4 = alloca ptr, align 8
  %5 = alloca ptr, align 8
  %6 = alloca ptr, align 8
  %7 = alloca ptr, align 8
  store ptr %0, ptr %2, align 8
  %8 = load ptr, ptr %2, align 8
  store i32 0, ptr %3, align 4
  %9 = getelementptr inbounds nuw %"class.clang::SanitizerMask", ptr %8, i32 0, i32 0
  store ptr %9, ptr %4, align 8
  %10 = load ptr, ptr %4, align 8
  %11 = getelementptr inbounds [2 x i64], ptr %10, i64 0, i64 0
  store ptr %11, ptr %5, align 8
  %12 = load ptr, ptr %4, align 8
  %13 = getelementptr inbounds [2 x i64], ptr %12, i64 0, i64 0
  %14 = getelementptr inbounds i64, ptr %13, i64 2
  store ptr %14, ptr %6, align 8
  br label %15

15:                                               ; preds = %26, %1
  %16 = load ptr, ptr %5, align 8
  %17 = load ptr, ptr %6, align 8
  %18 = icmp ne ptr %16, %17
  br i1 %18, label %19, label %29

19:                                               ; preds = %15
  %20 = load ptr, ptr %5, align 8
  store ptr %20, ptr %7, align 8
  %21 = load ptr, ptr %7, align 8
  %22 = load i64, ptr %21, align 8
  %23 = call noundef i32 @_ZN4llvm8popcountImvEEiT_(i64 noundef %22) #7
  %24 = load i32, ptr %3, align 4
  %25 = add i32 %24, %23
  store i32 %25, ptr %3, align 4
  br label %26

26:                                               ; preds = %19
  %27 = load ptr, ptr %5, align 8
  %28 = getelementptr inbounds i64, ptr %27, i32 1
  store ptr %28, ptr %5, align 8
  br label %15

29:                                               ; preds = %15
  %30 = load i32, ptr %3, align 4
  ret i32 %30
}