; Function Attrs: mustprogress nofree norecurse nosync nounwind willreturn memory(argmem: read) uwtable
define dso_local noundef i32 @_ZNK5clang13SanitizerMask15countPopulationEv(ptr noundef nonnull readonly align 8 captures(none) dereferenceable(16) %0) local_unnamed_addr #3 align 2 {
  br label %2

2:                                                ; preds = %1, %2
  %.011 = phi i32 [ 0, %1 ], [ %6, %2 ]
  %.09.idx10 = phi i64 [ 0, %1 ], [ %.09.add, %2 ]
  %.09.ptr = getelementptr inbounds nuw i8, ptr %0, i64 %.09.idx10
  %3 = load i64, ptr %.09.ptr, align 8
  %4 = tail call range(i64 0, 65) i64 @llvm.ctpop.i64(i64 %3)
  %5 = trunc nuw nsw i64 %4 to i32
  %6 = add i32 %.011, %5
  %.09.add = add nuw nsw i64 %.09.idx10, 8
  %.not = icmp eq i64 %.09.add, 16
  br i1 %.not, label %7, label %2

7:                                                ; preds = %2
  ret i32 %6
}